target datalayout = "e-m:e-p270:32:32-p271:32:32-p272:64:64-i64:64-i128:128-f80:128-n8:16:32:64-S128"
target triple = "x86_64-pc-linux-gnu"

@.str.1 = private unnamed_addr constant [10 x i8] c"funcapi.c\00", align 1
@.str.6 = private unnamed_addr constant [25 x i8] c"type %s is not composite\00", align 1
@__func__.get_expr_result_tupdesc = private unnamed_addr constant [24 x i8] c"get_expr_result_tupdesc\00", align 1
@.str.7 = private unnamed_addr constant [36 x i8] c"record type has not been registered\00", align 1

; Function Attrs: nounwind uwtable
define dso_local ptr @get_expr_result_tupdesc(ptr noundef %0, i1 noundef zeroext %1) #0 {
  %3 = alloca ptr, align 8
  %4 = alloca ptr, align 8
  %5 = alloca i8, align 1
  %6 = alloca ptr, align 8
  %7 = alloca i32, align 4
  %8 = alloca i32, align 4
  %9 = alloca i32, align 4
  store ptr %0, ptr %4, align 8
  %10 = zext i1 %1 to i8
  store i8 %10, ptr %5, align 1
  call void @llvm.lifetime.start.p0(i64 8, ptr %6) #7
  call void @llvm.lifetime.start.p0(i64 4, ptr %7) #7
  %11 = load ptr, ptr %4, align 8
  %12 = call i32 @get_expr_result_type(ptr noundef %11, ptr noundef null, ptr noundef %6)
  store i32 %12, ptr %7, align 4
  %13 = load i32, ptr %7, align 4
  %14 = icmp eq i32 %13, 1
  br i1 %14, label %18, label %15

15:                                               ; preds = %2
  %16 = load i32, ptr %7, align 4
  %17 = icmp eq i32 %16, 2
  br i1 %17, label %18, label %20

18:                                               ; preds = %15, %2
  %19 = load ptr, ptr %6, align 8
  store ptr %19, ptr %3, align 8
  store i32 1, ptr %8, align 4
  br label %56

20:                                               ; preds = %15
  %21 = load i8, ptr %5, align 1, !range !4, !noundef !5
  %22 = trunc i8 %21 to i1
  br i1 %22, label %55, label %23

23:                                               ; preds = %20
  call void @llvm.lifetime.start.p0(i64 4, ptr %9) #7
  %24 = load ptr, ptr %4, align 8
  %25 = call i32 @exprType(ptr noundef %24)
  store i32 %25, ptr %9, align 4
  %26 = load i32, ptr %9, align 4
  %27 = icmp ne i32 %26, 2249
  br i1 %27, label %28, label %42

28:                                               ; preds = %23
  br label %29

29:                                               ; preds = %28
  br i1 true, label %30, label %32

30:                                               ; preds = %29
  %31 = call zeroext i1 @errstart_cold(i32 noundef 21, ptr noundef null) #8
  br i1 %31, label %34, label %39

32:                                               ; preds = %29
  %33 = call zeroext i1 @errstart(i32 noundef 21, ptr noundef null)
  br i1 %33, label %34, label %39

34:                                               ; preds = %32, %30
  %35 = call i32 @errcode(i32 noundef 151027844)
  %36 = load i32, ptr %9, align 4
  %37 = call ptr @format_type_be(i32 noundef %36)
  %38 = call i32 (ptr, ...) @errmsg(ptr noundef @.str.6, ptr noundef %37)
  call void @errfinish(ptr noundef @.str.1, i32 noundef 570, ptr noundef @__func__.get_expr_result_tupdesc)
  br label %39

39:                                               ; preds = %34, %32, %30
  unreachable

40:                                               ; No predecessors!
  br label %41

41:                                               ; preds = %40
  br label %54

42:                                               ; preds = %23
  br label %43

43:                                               ; preds = %42
  br i1 true, label %44, label %46

44:                                               ; preds = %43
  %45 = call zeroext i1 @errstart_cold(i32 noundef 21, ptr noundef null) #8
  br i1 %45, label %48, label %51

46:                                               ; preds = %43
  %47 = call zeroext i1 @errstart(i32 noundef 21, ptr noundef null)
  br i1 %47, label %48, label %51

48:                                               ; preds = %46, %44
  %49 = call i32 @errcode(i32 noundef 151027844)
  %50 = call i32 (ptr, ...) @errmsg(ptr noundef @.str.7)
  call void @errfinish(ptr noundef @.str.1, i32 noundef 574, ptr noundef @__func__.get_expr_result_tupdesc)
  br label %51

51:                                               ; preds = %48, %46, %44
  unreachable

52:                                               ; No predecessors!
  br label %53

53:                                               ; preds = %52
  br label %54

54:                                               ; preds = %53, %41
  call void @llvm.lifetime.end.p0(i64 4, ptr %9) #7
  br label %55

55:                                               ; preds = %54, %20
  store ptr null, ptr %3, align 8
  store i32 1, ptr %8, align 4
  br label %56

56:                                               ; preds = %55, %18
  call void @llvm.lifetime.end.p0(i64 4, ptr %7) #7
  call void @llvm.lifetime.end.p0(i64 8, ptr %6) #7
  %57 = load ptr, ptr %3, align 8
  ret ptr %57
}