; Function Attrs: nounwind uwtable
define dso_local ptr @get_expr_result_tupdesc(ptr noundef %0, i1 noundef zeroext %1) local_unnamed_addr #0 {
  %3 = alloca ptr, align 8
  call void @llvm.lifetime.start.p0(i64 8, ptr nonnull %3) #8
  %4 = call i32 @get_expr_result_type(ptr noundef %0, ptr noundef null, ptr noundef nonnull %3)
  %5 = add nsw i32 %4, -1
  %or.cond = icmp ult i32 %5, 2
  br i1 %or.cond, label %6, label %8

6:                                                ; preds = %2
  %7 = load ptr, ptr %3, align 8
  br label %18

8:                                                ; preds = %2
  br i1 %1, label %18, label %9

9:                                                ; preds = %8
  %10 = call i32 @exprType(ptr noundef %0) #8
  %.not = icmp eq i32 %10, 2249
  %11 = call zeroext i1 @errstart_cold(i32 noundef 21, ptr noundef null) #9
  call void @llvm.assume(i1 %11)
  %12 = call i32 @errcode(i32 noundef 151027844) #8
  br i1 %.not, label %16, label %13

13:                                               ; preds = %9
  %14 = call ptr @format_type_be(i32 noundef %10) #8
  %15 = call i32 (ptr, ...) @errmsg(ptr noundef nonnull @.str.6, ptr noundef %14) #8
  call void @errfinish(ptr noundef nonnull @.str.1, i32 noundef 570, ptr noundef nonnull @__func__.get_expr_result_tupdesc) #8
  unreachable

16:                                               ; preds = %9
  %17 = call i32 (ptr, ...) @errmsg(ptr noundef nonnull @.str.7) #8
  call void @errfinish(ptr noundef nonnull @.str.1, i32 noundef 574, ptr noundef nonnull @__func__.get_expr_result_tupdesc) #8
  unreachable

18:                                               ; preds = %8, %6
  %.0 = phi ptr [ %7, %6 ], [ null, %8 ]
  call void @llvm.lifetime.end.p0(i64 8, ptr nonnull %3) #8
  ret ptr %.0
}